; Function Attrs: nounwind uwtable
define nonnull ptr @l___private_Lean_Elab_PatternVar_0__Lean_Elab_Term_CollectPatternVars_isDone___boxed(ptr noundef %0) local_unnamed_addr #0 {
  %2 = getelementptr inbounds nuw i8, ptr %0, i64 24
  %3 = load ptr, ptr %2, align 8, !tbaa !11
  %4 = getelementptr i8, ptr %3, i64 8
  %.val.i = load i64, ptr %4, align 8, !tbaa !4
  %5 = shl i64 %.val.i, 1
  %6 = or disjoint i64 %5, 1
  %7 = inttoptr i64 %6 to ptr
  %8 = getelementptr inbounds nuw i8, ptr %0, i64 32
  %9 = load ptr, ptr %8, align 8, !tbaa !11
  %10 = ptrtoint ptr %9 to i64
  %11 = and i64 %10, 1
  %.not.i3 = icmp eq i64 %11, 0
  br i1 %.not.i3, label %.critedge.i.i, label %12, !prof !14

12:                                               ; preds = %1
  %13 = icmp uge ptr %9, %7
  br label %l___private_Lean_Elab_PatternVar_0__Lean_Elab_Term_CollectPatternVars_isDone.exit

.critedge.i.i:                                    ; preds = %1
  %14 = tail call zeroext i1 @lean_nat_big_le(ptr noundef nonnull %7, ptr noundef %9) #6
  br label %l___private_Lean_Elab_PatternVar_0__Lean_Elab_Term_CollectPatternVars_isDone.exit

l___private_Lean_Elab_PatternVar_0__Lean_Elab_Term_CollectPatternVars_isDone.exit: ; preds = %12, %.critedge.i.i
  %.0.i.i = phi i1 [ %13, %12 ], [ %14, %.critedge.i.i ]
  %15 = ptrtoint ptr %0 to i64
  %16 = and i64 %15, 1
  %.not = icmp eq i64 %16, 0
  br i1 %.not, label %17, label %lean_dec.exit

17:                                               ; preds = %l___private_Lean_Elab_PatternVar_0__Lean_Elab_Term_CollectPatternVars_isDone.exit
  %18 = load i32, ptr %0, align 4, !tbaa !8
  %19 = icmp sgt i32 %18, 1
  br i1 %19, label %20, label %22, !prof !15

20:                                               ; preds = %17
  %21 = add nsw i32 %18, -1
  store i32 %21, ptr %0, align 4, !tbaa !8
  br label %lean_dec.exit

22:                                               ; preds = %17
  %.not.i = icmp eq i32 %18, 0
  br i1 %.not.i, label %lean_dec.exit, label %23

23:                                               ; preds = %22
  tail call void @lean_dec_ref_cold(ptr noundef nonnull %0) #6
  br label %lean_dec.exit

lean_dec.exit:                                    ; preds = %23, %22, %20, %l___private_Lean_Elab_PatternVar_0__Lean_Elab_Term_CollectPatternVars_isDone.exit
  %24 = select i1 %.0.i.i, ptr inttoptr (i64 3 to ptr), ptr inttoptr (i64 1 to ptr)
  ret ptr %24
}